target datalayout = "e-m:e-p270:32:32-p271:32:32-p272:64:64-i64:64-i128:128-f80:128-n8:16:32:64-S128"
target triple = "x86_64-pc-linux-gnu"

%struct._Py_DebugOffsets = type { [8 x i8], i64, i64, %struct._runtime_state, %struct._interpreter_state, %struct._thread_state, %struct._interpreter_frame, %struct._code_object, %struct._pyobject, %struct._type_object, %struct._tuple_object, %struct._list_object, %struct._set_object, %struct._dict_object, %struct._float_object, %struct._long_object, %struct._bytes_object, %struct._unicode_object, %struct._gc, %struct._gen_object }
%struct._runtime_state = type { i64, i64, i64 }
%struct._interpreter_state = type { i64, i64, i64, i64, i64, i64, i64, i64, i64, i64, i64, i64, i64 }
%struct._thread_state = type { i64, i64, i64, i64, i64, i64, i64, i64, i64 }
%struct._interpreter_frame = type { i64, i64, i64, i64, i64, i64, i64 }
%struct._code_object = type { i64, i64, i64, i64, i64, i64, i64, i64, i64, i64 }
%struct._pyobject = type { i64, i64 }
%struct._type_object = type { i64, i64, i64, i64 }
%struct._tuple_object = type { i64, i64, i64 }
%struct._list_object = type { i64, i64, i64 }
%struct._set_object = type { i64, i64, i64, i64 }
%struct._dict_object = type { i64, i64, i64 }
%struct._float_object = type { i64, i64 }
%struct._long_object = type { i64, i64, i64 }
%struct._bytes_object = type { i64, i64, i64 }
%struct._unicode_object = type { i64, i64, i64, i64 }
%struct._gc = type { i64, i64 }
%struct._gen_object = type { i64, i64, i64, i64 }
%struct.iovec = type { ptr, i64 }

@PyExc_OSError = external global ptr, align 8
@PyExc_RuntimeError = external global ptr, align 8
@.str.25 = private unnamed_addr constant [27 x i8] c"Unhandled frame owner %d.\0A\00", align 1

; Function Attrs: inlinehint nounwind uwtable
define internal i32 @read_ptr(i32 noundef %0, i64 noundef %1, ptr noundef %2) #6 {
  %4 = alloca i32, align 4
  %5 = alloca i32, align 4
  %6 = alloca i64, align 8
  %7 = alloca ptr, align 8
  %8 = alloca i32, align 4
  %9 = alloca i32, align 4
  store i32 %0, ptr %5, align 4, !tbaa !8
  store i64 %1, ptr %6, align 8, !tbaa !11
  store ptr %2, ptr %7, align 8, !tbaa !39
  call void @llvm.lifetime.start.p0(i64 4, ptr %8) #7
  %10 = load i32, ptr %5, align 4, !tbaa !8
  %11 = load i64, ptr %6, align 8, !tbaa !11
  %12 = load ptr, ptr %7, align 8, !tbaa !39
  %13 = call i64 @read_memory(i32 noundef %10, i64 noundef %11, i64 noundef 8, ptr noundef %12)
  %14 = trunc i64 %13 to i32
  store i32 %14, ptr %8, align 4, !tbaa !8
  %15 = load i32, ptr %8, align 4, !tbaa !8
  %16 = icmp slt i32 %15, 0
  br i1 %16, label %17, label %18

17:                                               ; preds = %3
  store i32 -1, ptr %4, align 4
  store i32 1, ptr %9, align 4
  br label %19

18:                                               ; preds = %3
  store i32 0, ptr %4, align 4
  store i32 1, ptr %9, align 4
  br label %19

19:                                               ; preds = %18, %17
  call void @llvm.lifetime.end.p0(i64 4, ptr %8) #7
  %20 = load i32, ptr %4, align 4
  ret i32 %20
}

; Function Attrs: nounwind uwtable
define internal i32 @read_py_ptr(i32 noundef %0, i64 noundef %1, ptr noundef %2) #0 {
  %4 = alloca i32, align 4
  %5 = alloca i32, align 4
  %6 = alloca i64, align 8
  %7 = alloca ptr, align 8
  store i32 %0, ptr %5, align 4, !tbaa !8
  store i64 %1, ptr %6, align 8, !tbaa !11
  store ptr %2, ptr %7, align 8, !tbaa !39
  %8 = load i32, ptr %5, align 4, !tbaa !8
  %9 = load i64, ptr %6, align 8, !tbaa !11
  %10 = load ptr, ptr %7, align 8, !tbaa !39
  %11 = call i32 @read_ptr(i32 noundef %8, i64 noundef %9, ptr noundef %10)
  %12 = icmp ne i32 %11, 0
  br i1 %12, label %13, label %14

13:                                               ; preds = %3
  store i32 -1, ptr %4, align 4
  br label %18

14:                                               ; preds = %3
  %15 = load ptr, ptr %7, align 8, !tbaa !39
  %16 = load i64, ptr %15, align 8, !tbaa !11
  %17 = and i64 %16, -2
  store i64 %17, ptr %15, align 8, !tbaa !11
  store i32 0, ptr %4, align 4
  br label %18

18:                                               ; preds = %14, %13
  %19 = load i32, ptr %4, align 4
  ret i32 %19
}

; Function Attrs: nounwind uwtable
define internal i64 @read_memory(i32 noundef %0, i64 noundef %1, i64 noundef %2, ptr noundef %3) #0 {
  %5 = alloca i64, align 8
  %6 = alloca i32, align 4
  %7 = alloca i64, align 8
  %8 = alloca i64, align 8
  %9 = alloca ptr, align 8
  %10 = alloca i64, align 8
  %11 = alloca [1 x %struct.iovec], align 16
  %12 = alloca [1 x %struct.iovec], align 16
  %13 = alloca i64, align 8
  %14 = alloca i64, align 8
  %15 = alloca i32, align 4
  store i32 %0, ptr %6, align 4, !tbaa !8
  store i64 %1, ptr %7, align 8, !tbaa !11
  store i64 %2, ptr %8, align 8, !tbaa !11
  store ptr %3, ptr %9, align 8, !tbaa !51
  call void @llvm.lifetime.start.p0(i64 8, ptr %10) #7
  store i64 0, ptr %10, align 8, !tbaa !11
  call void @llvm.lifetime.start.p0(i64 16, ptr %11) #7
  call void @llvm.lifetime.start.p0(i64 16, ptr %12) #7
  call void @llvm.lifetime.start.p0(i64 8, ptr %13) #7
  store i64 0, ptr %13, align 8, !tbaa !11
  call void @llvm.lifetime.start.p0(i64 8, ptr %14) #7
  store i64 0, ptr %14, align 8, !tbaa !11
  br label %16

16:                                               ; preds = %51, %4
  %17 = load ptr, ptr %9, align 8, !tbaa !51
  %18 = load i64, ptr %13, align 8, !tbaa !11
  %19 = getelementptr i8, ptr %17, i64 %18
  %20 = getelementptr [1 x %struct.iovec], ptr %11, i64 0, i64 0
  %21 = getelementptr inbounds nuw %struct.iovec, ptr %20, i32 0, i32 0
  store ptr %19, ptr %21, align 16, !tbaa !75
  %22 = load i64, ptr %8, align 8, !tbaa !11
  %23 = load i64, ptr %13, align 8, !tbaa !11
  %24 = sub i64 %22, %23
  %25 = getelementptr [1 x %struct.iovec], ptr %11, i64 0, i64 0
  %26 = getelementptr inbounds nuw %struct.iovec, ptr %25, i32 0, i32 1
  store i64 %24, ptr %26, align 8, !tbaa !77
  %27 = load i64, ptr %7, align 8, !tbaa !11
  %28 = load i64, ptr %13, align 8, !tbaa !11
  %29 = add i64 %27, %28
  %30 = inttoptr i64 %29 to ptr
  %31 = getelementptr [1 x %struct.iovec], ptr %12, i64 0, i64 0
  %32 = getelementptr inbounds nuw %struct.iovec, ptr %31, i32 0, i32 0
  store ptr %30, ptr %32, align 16, !tbaa !75
  %33 = load i64, ptr %8, align 8, !tbaa !11
  %34 = load i64, ptr %13, align 8, !tbaa !11
  %35 = sub i64 %33, %34
  %36 = getelementptr [1 x %struct.iovec], ptr %12, i64 0, i64 0
  %37 = getelementptr inbounds nuw %struct.iovec, ptr %36, i32 0, i32 1
  store i64 %35, ptr %37, align 8, !tbaa !77
  %38 = load i32, ptr %6, align 4, !tbaa !8
  %39 = getelementptr inbounds [1 x %struct.iovec], ptr %11, i64 0, i64 0
  %40 = getelementptr inbounds [1 x %struct.iovec], ptr %12, i64 0, i64 0
  %41 = call i64 @process_vm_readv(i32 noundef %38, ptr noundef %39, i64 noundef 1, ptr noundef %40, i64 noundef 1, i64 noundef 0) #7
  store i64 %41, ptr %14, align 8, !tbaa !11
  %42 = load i64, ptr %14, align 8, !tbaa !11
  %43 = icmp slt i64 %42, 0
  br i1 %43, label %44, label %47

44:                                               ; preds = %16
  %45 = load ptr, ptr @PyExc_OSError, align 8, !tbaa !3
  %46 = call ptr @PyErr_SetFromErrno(ptr noundef %45)
  store i64 -1, ptr %5, align 8
  store i32 1, ptr %15, align 4
  br label %60

47:                                               ; preds = %16
  %48 = load i64, ptr %14, align 8, !tbaa !11
  %49 = load i64, ptr %13, align 8, !tbaa !11
  %50 = add i64 %49, %48
  store i64 %50, ptr %13, align 8, !tbaa !11
  br label %51

51:                                               ; preds = %47
  %52 = load i64, ptr %14, align 8, !tbaa !11
  %53 = getelementptr [1 x %struct.iovec], ptr %11, i64 0, i64 0
  %54 = getelementptr inbounds nuw %struct.iovec, ptr %53, i32 0, i32 1
  %55 = load i64, ptr %54, align 8, !tbaa !77
  %56 = icmp ne i64 %52, %55
  br i1 %56, label %16, label %57, !llvm.loop !78

57:                                               ; preds = %51
  %58 = load i64, ptr %13, align 8, !tbaa !11
  store i64 %58, ptr %10, align 8, !tbaa !11
  %59 = load i64, ptr %10, align 8, !tbaa !11
  store i64 %59, ptr %5, align 8
  store i32 1, ptr %15, align 4
  br label %60

60:                                               ; preds = %57, %44
  call void @llvm.lifetime.end.p0(i64 8, ptr %14) #7
  call void @llvm.lifetime.end.p0(i64 8, ptr %13) #7
  call void @llvm.lifetime.end.p0(i64 16, ptr %12) #7
  call void @llvm.lifetime.end.p0(i64 16, ptr %11) #7
  call void @llvm.lifetime.end.p0(i64 8, ptr %10) #7
  %61 = load i64, ptr %5, align 8
  ret i64 %61
}

; Function Attrs: nounwind uwtable
define internal i32 @parse_async_frame_object(i32 noundef %0, ptr noundef %1, ptr noundef %2, i64 noundef %3, ptr noundef %4, ptr noundef %5) #0 {
  %7 = alloca i32, align 4
  %8 = alloca i32, align 4
  %9 = alloca ptr, align 8
  %10 = alloca ptr, align 8
  %11 = alloca i64, align 8
  %12 = alloca ptr, align 8
  %13 = alloca ptr, align 8
  %14 = alloca i32, align 4
  %15 = alloca i64, align 8
  %16 = alloca i32, align 4
  %17 = alloca i8, align 1
  store i32 %0, ptr %8, align 4, !tbaa !8
  store ptr %1, ptr %9, align 8, !tbaa !3
  store ptr %2, ptr %10, align 8, !tbaa !41
  store i64 %3, ptr %11, align 8, !tbaa !11
  store ptr %4, ptr %12, align 8, !tbaa !39
  store ptr %5, ptr %13, align 8, !tbaa !39
  call void @llvm.lifetime.start.p0(i64 4, ptr %14) #7
  call void @llvm.lifetime.start.p0(i64 8, ptr %15) #7
  %18 = load i32, ptr %8, align 4, !tbaa !8
  %19 = load i64, ptr %11, align 8, !tbaa !11
  %20 = load ptr, ptr %10, align 8, !tbaa !41
  %21 = getelementptr inbounds nuw %struct._Py_DebugOffsets, ptr %20, i32 0, i32 6
  %22 = getelementptr inbounds nuw %struct._interpreter_frame, ptr %21, i32 0, i32 1
  %23 = load i64, ptr %22, align 8, !tbaa !46
  %24 = add i64 %19, %23
  %25 = load ptr, ptr %12, align 8, !tbaa !39
  %26 = call i64 @read_memory(i32 noundef %18, i64 noundef %24, i64 noundef 8, ptr noundef %25)
  store i64 %26, ptr %15, align 8, !tbaa !11
  %27 = load i64, ptr %15, align 8, !tbaa !11
  %28 = icmp slt i64 %27, 0
  br i1 %28, label %29, label %30

29:                                               ; preds = %6
  store i32 -1, ptr %7, align 4
  store i32 1, ptr %16, align 4
  br label %95

30:                                               ; preds = %6
  call void @llvm.lifetime.start.p0(i64 1, ptr %17) #7
  %31 = load i32, ptr %8, align 4, !tbaa !8
  %32 = load i64, ptr %11, align 8, !tbaa !11
  %33 = load ptr, ptr %10, align 8, !tbaa !41
  %34 = getelementptr inbounds nuw %struct._Py_DebugOffsets, ptr %33, i32 0, i32 6
  %35 = getelementptr inbounds nuw %struct._interpreter_frame, ptr %34, i32 0, i32 5
  %36 = load i64, ptr %35, align 8, !tbaa !47
  %37 = add i64 %32, %36
  %38 = call i64 @read_memory(i32 noundef %31, i64 noundef %37, i64 noundef 1, ptr noundef %17)
  store i64 %38, ptr %15, align 8, !tbaa !11
  %39 = load i64, ptr %15, align 8, !tbaa !11
  %40 = icmp slt i64 %39, 0
  br i1 %40, label %41, label %42

41:                                               ; preds = %30
  store i32 -1, ptr %7, align 4
  store i32 1, ptr %16, align 4
  br label %94

42:                                               ; preds = %30
  %43 = load i8, ptr %17, align 1, !tbaa !10
  %44 = sext i8 %43 to i32
  %45 = icmp eq i32 %44, 4
  br i1 %45, label %50, label %46

46:                                               ; preds = %42
  %47 = load i8, ptr %17, align 1, !tbaa !10
  %48 = sext i8 %47 to i32
  %49 = icmp eq i32 %48, 3
  br i1 %49, label %50, label %51

50:                                               ; preds = %46, %42
  store i32 0, ptr %7, align 4
  store i32 1, ptr %16, align 4
  br label %94

51:                                               ; preds = %46
  %52 = load i8, ptr %17, align 1, !tbaa !10
  %53 = sext i8 %52 to i32
  %54 = icmp ne i32 %53, 1
  br i1 %54, label %55, label %64

55:                                               ; preds = %51
  %56 = load i8, ptr %17, align 1, !tbaa !10
  %57 = sext i8 %56 to i32
  %58 = icmp ne i32 %57, 0
  br i1 %58, label %59, label %64

59:                                               ; preds = %55
  %60 = load ptr, ptr @PyExc_RuntimeError, align 8, !tbaa !3
  %61 = load i8, ptr %17, align 1, !tbaa !10
  %62 = sext i8 %61 to i32
  %63 = call ptr (ptr, ptr, ...) @PyErr_Format(ptr noundef %60, ptr noundef @.str.25, i32 noundef %62)
  store i32 -1, ptr %7, align 4
  store i32 1, ptr %16, align 4
  br label %94

64:                                               ; preds = %55, %51
  %65 = load i32, ptr %8, align 4, !tbaa !8
  %66 = load i64, ptr %11, align 8, !tbaa !11
  %67 = load ptr, ptr %10, align 8, !tbaa !41
  %68 = getelementptr inbounds nuw %struct._Py_DebugOffsets, ptr %67, i32 0, i32 6
  %69 = getelementptr inbounds nuw %struct._interpreter_frame, ptr %68, i32 0, i32 2
  %70 = load i64, ptr %69, align 8, !tbaa !48
  %71 = add i64 %66, %70
  %72 = load ptr, ptr %13, align 8, !tbaa !39
  %73 = call i32 @read_py_ptr(i32 noundef %65, i64 noundef %71, ptr noundef %72)
  store i32 %73, ptr %14, align 4, !tbaa !8
  %74 = load i32, ptr %14, align 4, !tbaa !8
  %75 = icmp ne i32 %74, 0
  br i1 %75, label %76, label %77

76:                                               ; preds = %64
  store i32 -1, ptr %7, align 4
  store i32 1, ptr %16, align 4
  br label %94

77:                                               ; preds = %64
  %78 = load ptr, ptr %13, align 8, !tbaa !39
  %79 = load i64, ptr %78, align 8, !tbaa !11
  %80 = inttoptr i64 %79 to ptr
  %81 = icmp eq ptr %80, null
  br i1 %81, label %82, label %83

82:                                               ; preds = %77
  store i32 0, ptr %7, align 4
  store i32 1, ptr %16, align 4
  br label %94

83:                                               ; preds = %77
  %84 = load i32, ptr %8, align 4, !tbaa !8
  %85 = load ptr, ptr %9, align 8, !tbaa !3
  %86 = load ptr, ptr %10, align 8, !tbaa !41
  %87 = load ptr, ptr %13, align 8, !tbaa !39
  %88 = load i64, ptr %87, align 8, !tbaa !11
  %89 = load ptr, ptr %12, align 8, !tbaa !39
  %90 = call i32 @parse_code_object(i32 noundef %84, ptr noundef %85, ptr noundef %86, i64 noundef %88, ptr noundef %89)
  %91 = icmp ne i32 %90, 0
  br i1 %91, label %92, label %93

92:                                               ; preds = %83
  store i32 -1, ptr %7, align 4
  store i32 1, ptr %16, align 4
  br label %94

93:                                               ; preds = %83
  store i32 1, ptr %7, align 4
  store i32 1, ptr %16, align 4
  br label %94

94:                                               ; preds = %93, %92, %82, %76, %59, %50, %41
  call void @llvm.lifetime.end.p0(i64 1, ptr %17) #7
  br label %95

95:                                               ; preds = %94, %29
  call void @llvm.lifetime.end.p0(i64 8, ptr %15) #7
  call void @llvm.lifetime.end.p0(i64 4, ptr %14) #7
  %96 = load i32, ptr %7, align 4
  ret i32 %96
}