; Function Attrs: nounwind uwtable
define internal fastcc range(i32 -1, 2) i32 @parse_async_frame_object(i32 noundef %0, ptr noundef nonnull %1, ptr noundef nonnull readonly captures(none) %2, i64 noundef %3, ptr noundef nonnull %4, ptr noundef nonnull %5) unnamed_addr #0 {
  %7 = alloca [1 x %struct.iovec], align 16
  %8 = alloca [1 x %struct.iovec], align 16
  %9 = alloca [1 x %struct.iovec], align 16
  %10 = alloca [1 x %struct.iovec], align 16
  %11 = alloca [1 x %struct.iovec], align 16
  %12 = alloca [1 x %struct.iovec], align 16
  %13 = alloca i8, align 1
  %14 = getelementptr inbounds nuw i8, ptr %2, i64 232
  %15 = load i64, ptr %14, align 8, !tbaa !10
  %16 = add i64 %15, %3
  call void @llvm.lifetime.start.p0(i64 16, ptr nonnull %11) #9
  call void @llvm.lifetime.start.p0(i64 16, ptr nonnull %12) #9
  %17 = getelementptr inbounds nuw i8, ptr %11, i64 8
  %18 = getelementptr inbounds nuw i8, ptr %12, i64 8
  br label %19

19:                                               ; preds = %28, %6
  %.0.i = phi i64 [ 0, %6 ], [ %29, %28 ]
  %20 = getelementptr i8, ptr %4, i64 %.0.i
  store ptr %20, ptr %11, align 16, !tbaa !29
  %21 = sub i64 8, %.0.i
  store i64 %21, ptr %17, align 8, !tbaa !32
  %22 = add i64 %16, %.0.i
  %23 = inttoptr i64 %22 to ptr
  store ptr %23, ptr %12, align 16, !tbaa !29
  store i64 %21, ptr %18, align 8, !tbaa !32
  %24 = call i64 @process_vm_readv(i32 noundef %0, ptr noundef nonnull %11, i64 noundef 1, ptr noundef nonnull %12, i64 noundef 1, i64 noundef 0) #9
  %25 = icmp slt i64 %24, 0
  br i1 %25, label %read_memory.exit.thread, label %28

read_memory.exit.thread:                          ; preds = %19
  %26 = load ptr, ptr @PyExc_OSError, align 8, !tbaa !33
  %27 = call ptr @PyErr_SetFromErrno(ptr noundef %26) #9
  call void @llvm.lifetime.end.p0(i64 16, ptr nonnull %12) #9
  call void @llvm.lifetime.end.p0(i64 16, ptr nonnull %11) #9
  br label %83

28:                                               ; preds = %19
  %29 = add i64 %24, %.0.i
  %30 = load i64, ptr %17, align 8, !tbaa !32
  %.not.i = icmp eq i64 %24, %30
  br i1 %.not.i, label %read_memory.exit, label %19, !llvm.loop !35

read_memory.exit:                                 ; preds = %28
  call void @llvm.lifetime.end.p0(i64 16, ptr nonnull %12) #9
  call void @llvm.lifetime.end.p0(i64 16, ptr nonnull %11) #9
  %31 = icmp slt i64 %29, 0
  br i1 %31, label %83, label %32

32:                                               ; preds = %read_memory.exit
  call void @llvm.lifetime.start.p0(i64 1, ptr nonnull %13) #9
  %33 = getelementptr inbounds nuw i8, ptr %2, i64 264
  %34 = load i64, ptr %33, align 8, !tbaa !37
  %35 = add i64 %34, %3
  call void @llvm.lifetime.start.p0(i64 16, ptr nonnull %9) #9
  call void @llvm.lifetime.start.p0(i64 16, ptr nonnull %10) #9
  %36 = getelementptr inbounds nuw i8, ptr %9, i64 8
  %37 = getelementptr inbounds nuw i8, ptr %10, i64 8
  br label %38

38:                                               ; preds = %47, %32
  %.0.i27 = phi i64 [ 0, %32 ], [ %48, %47 ]
  %39 = getelementptr i8, ptr %13, i64 %.0.i27
  store ptr %39, ptr %9, align 16, !tbaa !29
  %40 = sub i64 1, %.0.i27
  store i64 %40, ptr %36, align 8, !tbaa !32
  %41 = add i64 %35, %.0.i27
  %42 = inttoptr i64 %41 to ptr
  store ptr %42, ptr %10, align 16, !tbaa !29
  store i64 %40, ptr %37, align 8, !tbaa !32
  %43 = call i64 @process_vm_readv(i32 noundef %0, ptr noundef nonnull %9, i64 noundef 1, ptr noundef nonnull %10, i64 noundef 1, i64 noundef 0) #9
  %44 = icmp slt i64 %43, 0
  br i1 %44, label %read_memory.exit30.thread, label %47

read_memory.exit30.thread:                        ; preds = %38
  %45 = load ptr, ptr @PyExc_OSError, align 8, !tbaa !33
  %46 = call ptr @PyErr_SetFromErrno(ptr noundef %45) #9
  call void @llvm.lifetime.end.p0(i64 16, ptr nonnull %10) #9
  call void @llvm.lifetime.end.p0(i64 16, ptr nonnull %9) #9
  br label %read_py_ptr.exit.thread

47:                                               ; preds = %38
  %48 = add i64 %43, %.0.i27
  %49 = load i64, ptr %36, align 8, !tbaa !32
  %.not.i28 = icmp eq i64 %43, %49
  br i1 %.not.i28, label %read_memory.exit30, label %38, !llvm.loop !35

read_memory.exit30:                               ; preds = %47
  call void @llvm.lifetime.end.p0(i64 16, ptr nonnull %10) #9
  call void @llvm.lifetime.end.p0(i64 16, ptr nonnull %9) #9
  %50 = icmp slt i64 %48, 0
  br i1 %50, label %read_py_ptr.exit.thread, label %51

51:                                               ; preds = %read_memory.exit30
  %52 = load i8, ptr %13, align 1, !tbaa !3
  %53 = sext i8 %52 to i32
  %54 = add i8 %52, -3
  %or.cond = icmp ult i8 %54, 2
  br i1 %or.cond, label %read_py_ptr.exit.thread, label %55

55:                                               ; preds = %51
  %or.cond5 = icmp ugt i8 %52, 1
  br i1 %or.cond5, label %56, label %59

56:                                               ; preds = %55
  %57 = load ptr, ptr @PyExc_RuntimeError, align 8, !tbaa !33
  %58 = call ptr (ptr, ptr, ...) @PyErr_Format(ptr noundef %57, ptr noundef nonnull @.str.25, i32 noundef %53) #9
  br label %read_py_ptr.exit.thread

59:                                               ; preds = %55
  %60 = getelementptr inbounds nuw i8, ptr %2, i64 240
  %61 = load i64, ptr %60, align 8, !tbaa !38
  %62 = add i64 %61, %3
  call void @llvm.lifetime.start.p0(i64 16, ptr nonnull %7) #9
  call void @llvm.lifetime.start.p0(i64 16, ptr nonnull %8) #9
  %63 = getelementptr inbounds nuw i8, ptr %7, i64 8
  %64 = getelementptr inbounds nuw i8, ptr %8, i64 8
  br label %65

65:                                               ; preds = %74, %59
  %.0.i.i.i = phi i64 [ 0, %59 ], [ %75, %74 ]
  %66 = getelementptr i8, ptr %5, i64 %.0.i.i.i
  store ptr %66, ptr %7, align 16, !tbaa !29
  %67 = sub i64 8, %.0.i.i.i
  store i64 %67, ptr %63, align 8, !tbaa !32
  %68 = add i64 %62, %.0.i.i.i
  %69 = inttoptr i64 %68 to ptr
  store ptr %69, ptr %8, align 16, !tbaa !29
  store i64 %67, ptr %64, align 8, !tbaa !32
  %70 = call i64 @process_vm_readv(i32 noundef %0, ptr noundef nonnull %7, i64 noundef 1, ptr noundef nonnull %8, i64 noundef 1, i64 noundef 0) #9
  %71 = icmp slt i64 %70, 0
  br i1 %71, label %read_ptr.exit.thread.i, label %74

read_ptr.exit.thread.i:                           ; preds = %65
  %72 = load ptr, ptr @PyExc_OSError, align 8, !tbaa !33
  %73 = call ptr @PyErr_SetFromErrno(ptr noundef %72) #9
  call void @llvm.lifetime.end.p0(i64 16, ptr nonnull %8) #9
  call void @llvm.lifetime.end.p0(i64 16, ptr nonnull %7) #9
  br label %read_py_ptr.exit.thread

74:                                               ; preds = %65
  %75 = add i64 %70, %.0.i.i.i
  %76 = load i64, ptr %63, align 8, !tbaa !32
  %.not.i.i.i = icmp eq i64 %70, %76
  br i1 %.not.i.i.i, label %read_ptr.exit.i, label %65, !llvm.loop !35

read_ptr.exit.i:                                  ; preds = %74
  call void @llvm.lifetime.end.p0(i64 16, ptr nonnull %8) #9
  call void @llvm.lifetime.end.p0(i64 16, ptr nonnull %7) #9
  %.mask.i = and i64 %75, 2147483648
  %.not.i31 = icmp eq i64 %.mask.i, 0
  br i1 %.not.i31, label %77, label %read_py_ptr.exit.thread

77:                                               ; preds = %read_ptr.exit.i
  %78 = load i64, ptr %5, align 8, !tbaa !8
  %79 = and i64 %78, -2
  store i64 %79, ptr %5, align 8, !tbaa !8
  %80 = icmp eq i64 %79, 0
  br i1 %80, label %read_py_ptr.exit.thread, label %81

81:                                               ; preds = %77
  %82 = call fastcc i32 @parse_code_object(i32 noundef %0, ptr noundef nonnull %1, ptr noundef %2, i64 noundef %79)
  %.not26 = icmp eq i32 %82, 0
  %. = select i1 %.not26, i32 1, i32 -1
  br label %read_py_ptr.exit.thread

read_py_ptr.exit.thread:                          ; preds = %read_ptr.exit.thread.i, %read_ptr.exit.i, %read_memory.exit30.thread, %81, %77, %51, %read_memory.exit30, %56
  %.1 = phi i32 [ -1, %56 ], [ -1, %read_memory.exit30 ], [ 0, %51 ], [ 0, %77 ], [ %., %81 ], [ -1, %read_memory.exit30.thread ], [ -1, %read_ptr.exit.i ], [ -1, %read_ptr.exit.thread.i ]
  call void @llvm.lifetime.end.p0(i64 1, ptr nonnull %13) #9
  br label %83

83:                                               ; preds = %read_memory.exit.thread, %read_memory.exit, %read_py_ptr.exit.thread
  %.0 = phi i32 [ %.1, %read_py_ptr.exit.thread ], [ -1, %read_memory.exit ], [ -1, %read_memory.exit.thread ]
  ret i32 %.0
}